EXPORTS 
	GipsVoiceEngineLib=??_7GipsVoiceEngineLib@@6B@
	GIPSAECTuningWizard=??_7GIPSAECTuningWizard@@6B@
    ?GIPSVE_AddToConference@VEAPI@@UAEHH_N0@Z
    ?GIPSVE_Authenticate@VEAPI@@UAEHPADH@Z
    ?GIPSVE_CheckIfAudioIsAvailable@VEAPI@@UAEHHH@Z
    ?GIPSVE_ConvertCompressedToPCM@VEAPI@@UAEHPAD0@Z
    ?GIPSVE_ConvertCompressedToPCM@VEAPI@@UAEHPAVInStream@@PAVOutStream@@@Z
    ?GIPSVE_ConvertPCMToCompressed@VEAPI@@UAEHPAD0PAUGIPSVE_CodecInst@@@Z
    ?GIPSVE_ConvertPCMToCompressed@VEAPI@@UAEHPAVInStream@@PAVOutStream@@PAUGIPSVE_CodecInst@@@Z
    ?GIPSVE_ConvertPCMToWav@VEAPI@@UAEHPAD0@Z
    ?GIPSVE_ConvertPCMToWav@VEAPI@@UAEHPAVInStream@@PAVOutStream@@H@Z
    ?GIPSVE_ConvertWavToPCM@VEAPI@@UAEHPAD0@Z
    ?GIPSVE_ConvertWavToPCM@VEAPI@@UAEHPAVInStream@@PAVOutStream@@@Z
    ?GIPSVE_CreateChannel@VEAPI@@UAEHXZ
    ?GIPSVE_DeleteChannel@VEAPI@@UAEHH@Z
    ?GIPSVE_DisableEncryption@VEAPI@@UAEHH@Z
    ?GIPSVE_DisableSRTPReceive@VEAPI@@UAEHH@Z
    ?GIPSVE_DisableSRTPSend@VEAPI@@UAEHH@Z
    ?GIPSVE_EnableEncryption@VEAPI@@UAEHH@Z
    ?GIPSVE_EnableExternalMediaProcessing@VEAPI@@UAEH_NHHAAVGIPS_media_process@@@Z
    ?GIPSVE_EnableFEC@VEAPI@@UAEHH_NH@Z
    ?GIPSVE_EnableRTCP@VEAPI@@UAEHHH@Z
    ?GIPSVE_EnableRTCP_XR@VEAPI@@UAEHH_N@Z
    ?GIPSVE_EnableSRTPReceive@VEAPI@@UAEHHHHHHHHPBE@Z
    ?GIPSVE_EnableSRTPSend@VEAPI@@UAEHHHHHHHHPBE@Z
    ?GIPSVE_EnableVQMon@VEAPI@@UAEHH_N@Z
    ?GIPSVE_Enable_External_Playout@VEAPI@@UAEH_N@Z
    ?GIPSVE_Enable_External_Recording@VEAPI@@UAEH_N@Z
    ?GIPSVE_External_Recording_SendData@VEAPI@@UAEHPAFHH@Z
    ?GIPSVE_GetAGCStatus@VEAPI@@UAEHXZ
    ?GIPSVE_GetChannelOutputVolumeScale@VEAPI@@UAEMH@Z
    ?GIPSVE_GetCodec@VEAPI@@UAEHFPAUGIPSVE_CodecInst@@@Z
    ?GIPSVE_GetCurrentSendCodec@VEAPI@@UAEHFPAUGIPSVE_CodecInst@@@Z
    ?GIPSVE_GetDTMFFeedbackStatus@VEAPI@@UAEHXZ
    ?GIPSVE_GetECActivity@VEAPI@@UAEHXZ
    ?GIPSVE_GetECStatus@VEAPI@@UAEHXZ
    ?GIPSVE_GetECType@VEAPI@@UAEHXZ
    ?GIPSVE_GetFilterPort@VEAPI@@UAEGH@Z
    ?GIPSVE_GetFromPort@VEAPI@@UAEGH@Z
    ?GIPSVE_GetInputLevel@VEAPI@@UAEHXZ
    ?GIPSVE_GetLastError@VEAPI@@UAEHXZ
    ?GIPSVE_GetMicVolume@VEAPI@@UAEHXZ
    ?GIPSVE_GetNRStatus@VEAPI@@UAEHXZ
    ?GIPSVE_GetNetworkStatus@VEAPI@@UAEHXZ
    ?GIPSVE_GetNoOfChannels@VEAPI@@UAEHXZ
    ?GIPSVE_GetNofCodecs@VEAPI@@UAEHXZ
    ?GIPSVE_GetOutputLevel@VEAPI@@UAEHH@Z
    ?GIPSVE_GetPTTActivity@VEAPI@@UAEHH@Z
    ?GIPSVE_GetPTTSession@VEAPI@@UAEHHPAUGIPSVE_PTTState@@@Z
    ?GIPSVE_GetPlayData@VEAPI@@UAEHPAFHH@Z
    ?GIPSVE_GetPlayoutTimeStamp@VEAPI@@UAEKH@Z
    ?GIPSVE_GetRecCodec@VEAPI@@UAEHHPAUGIPSVE_CodecInst@@@Z
    ?GIPSVE_GetRecPort@VEAPI@@UAEHH@Z
    ?GIPSVE_GetSendGQOS@VEAPI@@UAEHH@Z
    ?GIPSVE_GetSendIP@VEAPI@@UAEHHPADH@Z
    ?GIPSVE_GetSendPort@VEAPI@@UAEHH@Z
    ?GIPSVE_GetSendSSRC@VEAPI@@UAEKH@Z
    ?GIPSVE_GetSendTOS@VEAPI@@UAEHH@Z
    ?GIPSVE_GetSpeakerVolume@VEAPI@@UAEHXZ
    ?GIPSVE_GetVADStatus@VEAPI@@UAEHXZ
    ?GIPSVE_GetVersion@VEAPI@@UAEHPADH@Z
    ?GIPSVE_GetVoIPMetrics@VEAPI@@UAEHHPAEI@Z
    ?GIPSVE_GetWaveOutVolume@VEAPI@@QAEHXZ
    ?GIPSVE_Init@VEAPI@@UAEHXZ
    ?GIPSVE_InitEncryption@VEAPI@@UAEHAAVGIPS_encryption@@@Z
    ?GIPSVE_InstallAlertHandler@VEAPI@@UAEHP6AXHPAX@Z@Z
    ?GIPSVE_IsPlayingFile@VEAPI@@UAEHH@Z
    ?GIPSVE_IsPlayingFileAsMicrophone@VEAPI@@UAEHH@Z
    ?GIPSVE_MuteMic@VEAPI@@UAEHHH@Z
    ?GIPSVE_PauseRecordingCall@VEAPI@@UAEH_N@Z
    ?GIPSVE_PlayDTMFTone@VEAPI@@UAEHH@Z
    ?GIPSVE_PlayPCM@VEAPI@@UAEHHPAD_NHM@Z
    ?GIPSVE_PlayPCM@VEAPI@@UAEHHPAVInStream@@HM@Z
    ?GIPSVE_PlayPCMAsMicrophone@VEAPI@@UAEHHPAD_N1HM@Z
    ?GIPSVE_PlayPCMAsMicrophone@VEAPI@@UAEHHPAVInStream@@_NHM@Z
    ?GIPSVE_PutOnHold@VEAPI@@UAEHH_N@Z
    ?GIPSVE_RTCPStat@VEAPI@@UAEHHPAGPAK11PAH@Z
    ?GIPSVE_RTCPStat@VEAPI@@UAEHHPAUGIPSVE_CallStatistics@@@Z
    ?GIPSVE_ReceivedRTCPPacket@VEAPI@@UAEHHPBXH@Z
    ?GIPSVE_ReceivedRTPPacket@VEAPI@@UAEHHPBXH@Z
    ?GIPSVE_RemoveAlert@VEAPI@@UAEHHH@Z
    ?GIPSVE_SendDTMF@VEAPI@@UAEHHHH@Z
    ?GIPSVE_SetAGCStatus@VEAPI@@UAEHH@Z
    ?GIPSVE_SetAMR_dec_format@VEAPI@@UAEHHH@Z
    ?GIPSVE_SetAMR_enc_format@VEAPI@@UAEHHH@Z
    ?GIPSVE_SetAlert@VEAPI@@UAEHHHHHH@Z
    ?GIPSVE_SetChannelOutputVolumeScale@VEAPI@@UAEHHM@Z
    ?GIPSVE_SetDTMFFeedbackStatus@VEAPI@@UAEHH@Z
    ?GIPSVE_SetDTMFPayloadType@VEAPI@@UAEHHH@Z
    ?GIPSVE_SetECStatus@VEAPI@@UAEHH@Z
    ?GIPSVE_SetECType@VEAPI@@UAEHH@Z
    ?GIPSVE_SetFilterPort@VEAPI@@UAEHHG@Z
    ?GIPSVE_SetInputFile@VEAPI@@QAEHHPAD@Z
    ?GIPSVE_SetMicVolume@VEAPI@@UAEHI@Z
    ?GIPSVE_SetMinDelay@VEAPI@@UAEHHH@Z
    ?GIPSVE_SetNRStatus@VEAPI@@UAEHH@Z
    ?GIPSVE_SetNRpolicy@VEAPI@@UAEHH@Z
    ?GIPSVE_SetNetEqMode@VEAPI@@QAEHHH@Z
    ?GIPSVE_SetNetworkStatus@VEAPI@@UAEHH@Z
    ?GIPSVE_SetRTCPCNAME@VEAPI@@UAEHHPAD@Z
    ?GIPSVE_SetRecPayloadType@VEAPI@@UAEHFPAUGIPSVE_CodecInst@@@Z
    ?GIPSVE_SetRecPort@VEAPI@@UAEHHHPAD0@Z
    ?GIPSVE_SetSendCNPayloadType@VEAPI@@UAEHHF@Z
    ?GIPSVE_SetSendCodec@VEAPI@@UAEHHPAUGIPSVE_CodecInst@@@Z
    ?GIPSVE_SetSendGQOS@VEAPI@@UAEHH_NH@Z
    ?GIPSVE_SetSendIP@VEAPI@@UAEHHPAD@Z
    ?GIPSVE_SetSendPort@VEAPI@@UAEHHH@Z
    ?GIPSVE_SetSendSSRC@VEAPI@@UAEHHK@Z
    ?GIPSVE_SetSendTOS@VEAPI@@UAEHHH@Z
    ?GIPSVE_SetSendTransport@VEAPI@@UAEHHAAVGIPS_transport@@@Z
    ?GIPSVE_SetSoundDevices@VEAPI@@UAEHII_N@Z
    ?GIPSVE_SetSpeakerVolume@VEAPI@@UAEHI@Z
    ?GIPSVE_SetSrcPort@VEAPI@@UAEHHH@Z
    ?GIPSVE_SetTrace@VEAPI@@UAEHH@Z
    ?GIPSVE_SetTraceFileName@VEAPI@@UAEHPAD@Z
    ?GIPSVE_SetVADStatus@VEAPI@@UAEHH@Z
    ?GIPSVE_SetWaveOutVolume@VEAPI@@QAEHI@Z
    ?GIPSVE_SetiSACBitRate@VEAPI@@QAEHHHH@Z
    ?GIPSVE_StartListen@VEAPI@@UAEHH@Z
    ?GIPSVE_StartPTTPlayout@VEAPI@@UAEHH@Z
    ?GIPSVE_StartPlayout@VEAPI@@UAEHH@Z
    ?GIPSVE_StartRecording@VEAPI@@UAEHHPADPAUGIPSVE_CodecInst@@@Z
    ?GIPSVE_StartRecording@VEAPI@@UAEHHPAVOutStream@@PAUGIPSVE_CodecInst@@@Z
    ?GIPSVE_StartRecordingCall@VEAPI@@UAEHPADPAUGIPSVE_CodecInst@@@Z
    ?GIPSVE_StartRecordingCall@VEAPI@@UAEHPAVOutStream@@PAUGIPSVE_CodecInst@@@Z
    ?GIPSVE_StartRecordingMicrophone@VEAPI@@UAEHPADPAUGIPSVE_CodecInst@@@Z
    ?GIPSVE_StartRecordingMicrophone@VEAPI@@UAEHPAVOutStream@@PAUGIPSVE_CodecInst@@@Z
    ?GIPSVE_StartSend@VEAPI@@UAEHH@Z
    ?GIPSVE_StopListen@VEAPI@@UAEHH@Z
    ?GIPSVE_StopPlayingFile@VEAPI@@UAEHH@Z
    ?GIPSVE_StopPlayingFileAsMicrophone@VEAPI@@UAEHH@Z
    ?GIPSVE_StopPlayout@VEAPI@@UAEHH@Z
    ?GIPSVE_StopRecording@VEAPI@@UAEHH@Z
    ?GIPSVE_StopRecordingCall@VEAPI@@UAEHXZ
    ?GIPSVE_StopRecordingMicrophone@VEAPI@@UAEHXZ
    ?GIPSVE_StopSend@VEAPI@@UAEHH@Z
    ?GIPSVE_Terminate@VEAPI@@UAEHXZ
    ?GIPSVE_check@VEAPI@@AAEHXZ
    ?GIPSVE_getRemoteRTCPCNAME@VEAPI@@UAEHHPAD@Z
    ?GIPSVE_getRemoteRTCPData@VEAPI@@UAEHHPAK000@Z


	